; Function Attrs: nounwind uwtable
define internal void @partial_dealloc(ptr noundef %0) #0 {
  %2 = getelementptr i8, ptr %0, i64 8
  %.val = load ptr, ptr %2, align 8, !tbaa !113
  tail call void @PyObject_GC_UnTrack(ptr noundef %0) #9
  %3 = getelementptr inbounds nuw i8, ptr %0, i64 48
  %4 = load ptr, ptr %3, align 8, !tbaa !126
  %.not = icmp eq ptr %4, null
  br i1 %.not, label %6, label %5

5:                                                ; preds = %1
  tail call void @PyObject_ClearWeakRefs(ptr noundef nonnull %0) #9
  br label %6

6:                                                ; preds = %5, %1
  %7 = tail call i32 @partial_clear(ptr noundef nonnull %0)
  %8 = getelementptr inbounds nuw i8, ptr %.val, i64 320
  %9 = load ptr, ptr %8, align 8, !tbaa !121
  tail call void %9(ptr noundef nonnull %0) #9
  %10 = load i32, ptr %.val, align 8, !tbaa !21
  %.not.i = icmp sgt i32 %10, -1
  br i1 %.not.i, label %11, label %Py_DECREF.exit

11:                                               ; preds = %6
  %12 = add nsw i32 %10, -1
  store i32 %12, ptr %.val, align 8, !tbaa !21
  %13 = icmp eq i32 %12, 0
  br i1 %13, label %14, label %Py_DECREF.exit

14:                                               ; preds = %11
  tail call void @_Py_Dealloc(ptr noundef nonnull %.val) #9
  br label %Py_DECREF.exit

Py_DECREF.exit:                                   ; preds = %6, %11, %14
  ret void
}